target datalayout = "e-m:e-p270:32:32-p271:32:32-p272:64:64-i64:64-i128:128-f80:128-n8:16:32:64-S128"
target triple = "x86_64-pc-linux-gnu"

%"class.cv::Point_" = type { i32, i32 }
%"class.cv::_InputOutputArray" = type { %"class.cv::_OutputArray" }
%"class.cv::_OutputArray" = type { %"class.cv::_InputArray" }
%"class.cv::_InputArray" = type { i32, ptr, %"class.cv::Size_" }
%"class.cv::Size_" = type { i32, i32 }

; Function Attrs: inlinehint mustprogress nounwind uwtable
define linkonce_odr hidden void @_ZN2cv5Size_IiEC2Ev(ptr noundef nonnull align 4 dereferenceable(8) %0) unnamed_addr #10 comdat align 2 {
  %2 = alloca ptr, align 8
  store ptr %0, ptr %2, align 8, !tbaa !104
  %3 = load ptr, ptr %2, align 8
  %4 = getelementptr inbounds nuw %"class.cv::Size_", ptr %3, i32 0, i32 0
  store i32 0, ptr %4, align 4, !tbaa !106
  %5 = getelementptr inbounds nuw %"class.cv::Size_", ptr %3, i32 0, i32 1
  store i32 0, ptr %5, align 4, !tbaa !107
  ret void
}

; Function Attrs: inlinehint mustprogress uwtable
define linkonce_odr hidden void @_ZN2cv11_InputArrayC2Ev(ptr noundef nonnull align 8 dereferenceable(24) %0) unnamed_addr #7 comdat align 2 {
  %2 = alloca ptr, align 8
  store ptr %0, ptr %2, align 8, !tbaa !49
  %3 = load ptr, ptr %2, align 8
  %4 = getelementptr inbounds nuw %"class.cv::_InputArray", ptr %3, i32 0, i32 2
  call void @_ZN2cv5Size_IiEC2Ev(ptr noundef nonnull align 4 dereferenceable(8) %4)
  call void @_ZN2cv11_InputArray4initEiPKv(ptr noundef nonnull align 8 dereferenceable(24) %3, i32 noundef 0, ptr noundef null)
  ret void
}

; Function Attrs: inlinehint mustprogress nounwind uwtable
define linkonce_odr hidden void @_ZN2cv11_InputArray4initEiPKv(ptr noundef nonnull align 8 dereferenceable(24) %0, i32 noundef %1, ptr noundef %2) #10 comdat align 2 {
  %4 = alloca ptr, align 8
  %5 = alloca i32, align 4
  %6 = alloca ptr, align 8
  store ptr %0, ptr %4, align 8, !tbaa !49
  store i32 %1, ptr %5, align 4, !tbaa !17
  store ptr %2, ptr %6, align 8, !tbaa !92
  %7 = load ptr, ptr %4, align 8
  %8 = load i32, ptr %5, align 4, !tbaa !17
  %9 = getelementptr inbounds nuw %"class.cv::_InputArray", ptr %7, i32 0, i32 0
  store i32 %8, ptr %9, align 8, !tbaa !100
  %10 = load ptr, ptr %6, align 8, !tbaa !92
  %11 = getelementptr inbounds nuw %"class.cv::_InputArray", ptr %7, i32 0, i32 1
  store ptr %10, ptr %11, align 8, !tbaa !103
  ret void
}

; Function Attrs: inlinehint mustprogress uwtable
define linkonce_odr hidden void @_ZN2cv12_OutputArrayC2Ev(ptr noundef nonnull align 8 dereferenceable(24) %0) unnamed_addr #7 comdat align 2 personality ptr @__gxx_personality_v0 {
  %2 = alloca ptr, align 8
  %3 = alloca ptr, align 8
  %4 = alloca i32, align 4
  store ptr %0, ptr %2, align 8, !tbaa !93
  %5 = load ptr, ptr %2, align 8
  call void @_ZN2cv11_InputArrayC2Ev(ptr noundef nonnull align 8 dereferenceable(24) %5)
  invoke void @_ZN2cv11_InputArray4initEiPKv(ptr noundef nonnull align 8 dereferenceable(24) %5, i32 noundef 33554432, ptr noundef null)
          to label %6 unwind label %7

6:                                                ; preds = %1
  ret void

7:                                                ; preds = %1
  %8 = landingpad { ptr, i32 }
          cleanup
  %9 = extractvalue { ptr, i32 } %8, 0
  store ptr %9, ptr %3, align 8
  %10 = extractvalue { ptr, i32 } %8, 1
  store i32 %10, ptr %4, align 4
  call void @_ZN2cv11_InputArrayD2Ev(ptr noundef nonnull align 8 dereferenceable(24) %5) #3
  br label %11

11:                                               ; preds = %7
  %12 = load ptr, ptr %3, align 8
  %13 = load i32, ptr %4, align 4
  %14 = insertvalue { ptr, i32 } poison, ptr %12, 0
  %15 = insertvalue { ptr, i32 } %14, i32 %13, 1
  resume { ptr, i32 } %15
}

; Function Attrs: inlinehint mustprogress nounwind uwtable
define linkonce_odr hidden void @_ZN2cv11_InputArrayD2Ev(ptr noundef nonnull align 8 dereferenceable(24) %0) unnamed_addr #10 comdat align 2 {
  %2 = alloca ptr, align 8
  store ptr %0, ptr %2, align 8, !tbaa !49
  ret void
}

; Function Attrs: inlinehint mustprogress uwtable
define linkonce_odr hidden void @_ZN2cv17_InputOutputArrayC2ERNS_3MatE(ptr noundef nonnull align 8 dereferenceable(24) %0, ptr noundef nonnull align 8 dereferenceable(96) %1) unnamed_addr #7 comdat align 2 personality ptr @__gxx_personality_v0 {
  %3 = alloca ptr, align 8
  %4 = alloca ptr, align 8
  %5 = alloca ptr, align 8
  %6 = alloca i32, align 4
  store ptr %0, ptr %3, align 8, !tbaa !21
  store ptr %1, ptr %4, align 8, !tbaa !4
  %7 = load ptr, ptr %3, align 8
  call void @_ZN2cv12_OutputArrayC2Ev(ptr noundef nonnull align 8 dereferenceable(24) %7)
  %8 = load ptr, ptr %4, align 8, !tbaa !4
  invoke void @_ZN2cv11_InputArray4initEiPKv(ptr noundef nonnull align 8 dereferenceable(24) %7, i32 noundef 50397184, ptr noundef %8)
          to label %9 unwind label %10

9:                                                ; preds = %2
  ret void

10:                                               ; preds = %2
  %11 = landingpad { ptr, i32 }
          cleanup
  %12 = extractvalue { ptr, i32 } %11, 0
  store ptr %12, ptr %5, align 8
  %13 = extractvalue { ptr, i32 } %11, 1
  store i32 %13, ptr %6, align 4
  call void @_ZN2cv11_InputArrayD2Ev(ptr noundef nonnull align 8 dereferenceable(24) %7) #3
  br label %14

14:                                               ; preds = %10
  %15 = load ptr, ptr %5, align 8
  %16 = load i32, ptr %6, align 4
  %17 = insertvalue { ptr, i32 } poison, ptr %15, 0
  %18 = insertvalue { ptr, i32 } %17, i32 %16, 1
  resume { ptr, i32 } %18
}

; Function Attrs: mustprogress uwtable
define hidden void @_Z8drawAxisRN2cv3MatENS_6Point_IiEES3_NS_7Scalar_IdEEf(ptr noundef nonnull align 8 dereferenceable(96) %0, i64 %1, i64 %2, ptr noundef %3, float noundef %4) #4 personality ptr @__gxx_personality_v0 {
  %6 = alloca %"class.cv::Point_", align 4
  %7 = alloca %"class.cv::Point_", align 4
  %8 = alloca ptr, align 8
  %9 = alloca ptr, align 8
  %10 = alloca float, align 4
  %11 = alloca double, align 8
  %12 = alloca double, align 8
  %13 = alloca %"class.cv::_InputOutputArray", align 8
  %14 = alloca %"class.cv::Point_", align 4
  %15 = alloca %"class.cv::Point_", align 4
  %16 = alloca ptr, align 8
  %17 = alloca i32, align 4
  %18 = alloca %"class.cv::_InputOutputArray", align 8
  %19 = alloca %"class.cv::Point_", align 4
  %20 = alloca %"class.cv::Point_", align 4
  %21 = alloca %"class.cv::_InputOutputArray", align 8
  %22 = alloca %"class.cv::Point_", align 4
  %23 = alloca %"class.cv::Point_", align 4
  store i64 %1, ptr %6, align 4
  store i64 %2, ptr %7, align 4
  store ptr %0, ptr %8, align 8, !tbaa !4
  store ptr %3, ptr %9, align 8, !tbaa !9
  store float %4, ptr %10, align 4, !tbaa !11
  call void @llvm.lifetime.start.p0(i64 8, ptr %11) #3
  %24 = getelementptr inbounds nuw %"class.cv::Point_", ptr %6, i32 0, i32 1
  %25 = load i32, ptr %24, align 4, !tbaa !13
  %26 = sitofp i32 %25 to double
  %27 = getelementptr inbounds nuw %"class.cv::Point_", ptr %7, i32 0, i32 1
  %28 = load i32, ptr %27, align 4, !tbaa !13
  %29 = sitofp i32 %28 to double
  %30 = fsub double %26, %29
  %31 = getelementptr inbounds nuw %"class.cv::Point_", ptr %6, i32 0, i32 0
  %32 = load i32, ptr %31, align 4, !tbaa !16
  %33 = sitofp i32 %32 to double
  %34 = getelementptr inbounds nuw %"class.cv::Point_", ptr %7, i32 0, i32 0
  %35 = load i32, ptr %34, align 4, !tbaa !16
  %36 = sitofp i32 %35 to double
  %37 = fsub double %33, %36
  %38 = call double @atan2(double noundef %30, double noundef %37) #3, !tbaa !17
  store double %38, ptr %11, align 8, !tbaa !18
  call void @llvm.lifetime.start.p0(i64 8, ptr %12) #3
  %39 = getelementptr inbounds nuw %"class.cv::Point_", ptr %6, i32 0, i32 1
  %40 = load i32, ptr %39, align 4, !tbaa !13
  %41 = getelementptr inbounds nuw %"class.cv::Point_", ptr %7, i32 0, i32 1
  %42 = load i32, ptr %41, align 4, !tbaa !13
  %43 = sub nsw i32 %40, %42
  %44 = sitofp i32 %43 to double
  %45 = getelementptr inbounds nuw %"class.cv::Point_", ptr %6, i32 0, i32 1
  %46 = load i32, ptr %45, align 4, !tbaa !13
  %47 = getelementptr inbounds nuw %"class.cv::Point_", ptr %7, i32 0, i32 1
  %48 = load i32, ptr %47, align 4, !tbaa !13
  %49 = sub nsw i32 %46, %48
  %50 = sitofp i32 %49 to double
  %51 = getelementptr inbounds nuw %"class.cv::Point_", ptr %6, i32 0, i32 0
  %52 = load i32, ptr %51, align 4, !tbaa !16
  %53 = getelementptr inbounds nuw %"class.cv::Point_", ptr %7, i32 0, i32 0
  %54 = load i32, ptr %53, align 4, !tbaa !16
  %55 = sub nsw i32 %52, %54
  %56 = getelementptr inbounds nuw %"class.cv::Point_", ptr %6, i32 0, i32 0
  %57 = load i32, ptr %56, align 4, !tbaa !16
  %58 = getelementptr inbounds nuw %"class.cv::Point_", ptr %7, i32 0, i32 0
  %59 = load i32, ptr %58, align 4, !tbaa !16
  %60 = sub nsw i32 %57, %59
  %61 = mul nsw i32 %55, %60
  %62 = sitofp i32 %61 to double
  %63 = call double @llvm.fmuladd.f64(double %44, double %50, double %62)
  %64 = call double @sqrt(double noundef %63) #3, !tbaa !17
  store double %64, ptr %12, align 8, !tbaa !18
  %65 = getelementptr inbounds nuw %"class.cv::Point_", ptr %6, i32 0, i32 0
  %66 = load i32, ptr %65, align 4, !tbaa !16
  %67 = sitofp i32 %66 to double
  %68 = load float, ptr %10, align 4, !tbaa !11
  %69 = fpext float %68 to double
  %70 = load double, ptr %12, align 8, !tbaa !18
  %71 = fmul double %69, %70
  %72 = load double, ptr %11, align 8, !tbaa !18
  %73 = call double @cos(double noundef %72) #3, !tbaa !17
  %74 = fneg double %71
  %75 = call double @llvm.fmuladd.f64(double %74, double %73, double %67)
  %76 = fptosi double %75 to i32
  %77 = getelementptr inbounds nuw %"class.cv::Point_", ptr %7, i32 0, i32 0
  store i32 %76, ptr %77, align 4, !tbaa !16
  %78 = getelementptr inbounds nuw %"class.cv::Point_", ptr %6, i32 0, i32 1
  %79 = load i32, ptr %78, align 4, !tbaa !13
  %80 = sitofp i32 %79 to double
  %81 = load float, ptr %10, align 4, !tbaa !11
  %82 = fpext float %81 to double
  %83 = load double, ptr %12, align 8, !tbaa !18
  %84 = fmul double %82, %83
  %85 = load double, ptr %11, align 8, !tbaa !18
  %86 = call double @sin(double noundef %85) #3, !tbaa !17
  %87 = fneg double %84
  %88 = call double @llvm.fmuladd.f64(double %87, double %86, double %80)
  %89 = fptosi double %88 to i32
  %90 = getelementptr inbounds nuw %"class.cv::Point_", ptr %7, i32 0, i32 1
  store i32 %89, ptr %90, align 4, !tbaa !13
  call void @llvm.lifetime.start.p0(i64 24, ptr %13) #3
  %91 = load ptr, ptr %8, align 8, !tbaa !4
  call void @_ZN2cv17_InputOutputArrayC2ERNS_3MatE(ptr noundef nonnull align 8 dereferenceable(24) %13, ptr noundef nonnull align 8 dereferenceable(96) %91)
  call void @llvm.memcpy.p0.p0.i64(ptr align 4 %14, ptr align 4 %6, i64 8, i1 false), !tbaa.struct !20
  call void @llvm.memcpy.p0.p0.i64(ptr align 4 %15, ptr align 4 %7, i64 8, i1 false), !tbaa.struct !20
  %92 = load i64, ptr %14, align 4
  %93 = load i64, ptr %15, align 4
  invoke void @_ZN2cv4lineERKNS_17_InputOutputArrayENS_6Point_IiEES4_RKNS_7Scalar_IdEEiii(ptr noundef nonnull align 8 dereferenceable(24) %13, i64 %92, i64 %93, ptr noundef nonnull align 8 dereferenceable(32) %3, i32 noundef 1, i32 noundef 16, i32 noundef 0)
          to label %94 unwind label %139

94:                                               ; preds = %5
  call void @_ZN2cv11_InputArrayD2Ev(ptr noundef nonnull align 8 dereferenceable(24) %13) #3
  call void @llvm.lifetime.end.p0(i64 24, ptr %13) #3
  %95 = getelementptr inbounds nuw %"class.cv::Point_", ptr %7, i32 0, i32 0
  %96 = load i32, ptr %95, align 4, !tbaa !16
  %97 = sitofp i32 %96 to double
  %98 = load double, ptr %11, align 8, !tbaa !18
  %99 = fadd double %98, 0x3FE921FB54442D18
  %100 = call double @cos(double noundef %99) #3, !tbaa !17
  %101 = call double @llvm.fmuladd.f64(double 9.000000e+00, double %100, double %97)
  %102 = fptosi double %101 to i32
  %103 = getelementptr inbounds nuw %"class.cv::Point_", ptr %6, i32 0, i32 0
  store i32 %102, ptr %103, align 4, !tbaa !16
  %104 = getelementptr inbounds nuw %"class.cv::Point_", ptr %7, i32 0, i32 1
  %105 = load i32, ptr %104, align 4, !tbaa !13
  %106 = sitofp i32 %105 to double
  %107 = load double, ptr %11, align 8, !tbaa !18
  %108 = fadd double %107, 0x3FE921FB54442D18
  %109 = call double @sin(double noundef %108) #3, !tbaa !17
  %110 = call double @llvm.fmuladd.f64(double 9.000000e+00, double %109, double %106)
  %111 = fptosi double %110 to i32
  %112 = getelementptr inbounds nuw %"class.cv::Point_", ptr %6, i32 0, i32 1
  store i32 %111, ptr %112, align 4, !tbaa !13
  call void @llvm.lifetime.start.p0(i64 24, ptr %18) #3
  %113 = load ptr, ptr %8, align 8, !tbaa !4
  call void @_ZN2cv17_InputOutputArrayC2ERNS_3MatE(ptr noundef nonnull align 8 dereferenceable(24) %18, ptr noundef nonnull align 8 dereferenceable(96) %113)
  call void @llvm.memcpy.p0.p0.i64(ptr align 4 %19, ptr align 4 %6, i64 8, i1 false), !tbaa.struct !20
  call void @llvm.memcpy.p0.p0.i64(ptr align 4 %20, ptr align 4 %7, i64 8, i1 false), !tbaa.struct !20
  %114 = load i64, ptr %19, align 4
  %115 = load i64, ptr %20, align 4
  invoke void @_ZN2cv4lineERKNS_17_InputOutputArrayENS_6Point_IiEES4_RKNS_7Scalar_IdEEiii(ptr noundef nonnull align 8 dereferenceable(24) %18, i64 %114, i64 %115, ptr noundef nonnull align 8 dereferenceable(32) %3, i32 noundef 1, i32 noundef 16, i32 noundef 0)
          to label %116 unwind label %143

116:                                              ; preds = %94
  call void @_ZN2cv11_InputArrayD2Ev(ptr noundef nonnull align 8 dereferenceable(24) %18) #3
  call void @llvm.lifetime.end.p0(i64 24, ptr %18) #3
  %117 = getelementptr inbounds nuw %"class.cv::Point_", ptr %7, i32 0, i32 0
  %118 = load i32, ptr %117, align 4, !tbaa !16
  %119 = sitofp i32 %118 to double
  %120 = load double, ptr %11, align 8, !tbaa !18
  %121 = fsub double %120, 0x3FE921FB54442D18
  %122 = call double @cos(double noundef %121) #3, !tbaa !17
  %123 = call double @llvm.fmuladd.f64(double 9.000000e+00, double %122, double %119)
  %124 = fptosi double %123 to i32
  %125 = getelementptr inbounds nuw %"class.cv::Point_", ptr %6, i32 0, i32 0
  store i32 %124, ptr %125, align 4, !tbaa !16
  %126 = getelementptr inbounds nuw %"class.cv::Point_", ptr %7, i32 0, i32 1
  %127 = load i32, ptr %126, align 4, !tbaa !13
  %128 = sitofp i32 %127 to double
  %129 = load double, ptr %11, align 8, !tbaa !18
  %130 = fsub double %129, 0x3FE921FB54442D18
  %131 = call double @sin(double noundef %130) #3, !tbaa !17
  %132 = call double @llvm.fmuladd.f64(double 9.000000e+00, double %131, double %128)
  %133 = fptosi double %132 to i32
  %134 = getelementptr inbounds nuw %"class.cv::Point_", ptr %6, i32 0, i32 1
  store i32 %133, ptr %134, align 4, !tbaa !13
  call void @llvm.lifetime.start.p0(i64 24, ptr %21) #3
  %135 = load ptr, ptr %8, align 8, !tbaa !4
  call void @_ZN2cv17_InputOutputArrayC2ERNS_3MatE(ptr noundef nonnull align 8 dereferenceable(24) %21, ptr noundef nonnull align 8 dereferenceable(96) %135)
  call void @llvm.memcpy.p0.p0.i64(ptr align 4 %22, ptr align 4 %6, i64 8, i1 false), !tbaa.struct !20
  call void @llvm.memcpy.p0.p0.i64(ptr align 4 %23, ptr align 4 %7, i64 8, i1 false), !tbaa.struct !20
  %136 = load i64, ptr %22, align 4
  %137 = load i64, ptr %23, align 4
  invoke void @_ZN2cv4lineERKNS_17_InputOutputArrayENS_6Point_IiEES4_RKNS_7Scalar_IdEEiii(ptr noundef nonnull align 8 dereferenceable(24) %21, i64 %136, i64 %137, ptr noundef nonnull align 8 dereferenceable(32) %3, i32 noundef 1, i32 noundef 16, i32 noundef 0)
          to label %138 unwind label %147

138:                                              ; preds = %116
  call void @_ZN2cv11_InputArrayD2Ev(ptr noundef nonnull align 8 dereferenceable(24) %21) #3
  call void @llvm.lifetime.end.p0(i64 24, ptr %21) #3
  call void @llvm.lifetime.end.p0(i64 8, ptr %12) #3
  call void @llvm.lifetime.end.p0(i64 8, ptr %11) #3
  ret void

139:                                              ; preds = %5
  %140 = landingpad { ptr, i32 }
          cleanup
  %141 = extractvalue { ptr, i32 } %140, 0
  store ptr %141, ptr %16, align 8
  %142 = extractvalue { ptr, i32 } %140, 1
  store i32 %142, ptr %17, align 4
  call void @_ZN2cv11_InputArrayD2Ev(ptr noundef nonnull align 8 dereferenceable(24) %13) #3
  call void @llvm.lifetime.end.p0(i64 24, ptr %13) #3
  br label %151

143:                                              ; preds = %94
  %144 = landingpad { ptr, i32 }
          cleanup
  %145 = extractvalue { ptr, i32 } %144, 0
  store ptr %145, ptr %16, align 8
  %146 = extractvalue { ptr, i32 } %144, 1
  store i32 %146, ptr %17, align 4
  call void @_ZN2cv11_InputArrayD2Ev(ptr noundef nonnull align 8 dereferenceable(24) %18) #3
  call void @llvm.lifetime.end.p0(i64 24, ptr %18) #3
  br label %151

147:                                              ; preds = %116
  %148 = landingpad { ptr, i32 }
          cleanup
  %149 = extractvalue { ptr, i32 } %148, 0
  store ptr %149, ptr %16, align 8
  %150 = extractvalue { ptr, i32 } %148, 1
  store i32 %150, ptr %17, align 4
  call void @_ZN2cv11_InputArrayD2Ev(ptr noundef nonnull align 8 dereferenceable(24) %21) #3
  call void @llvm.lifetime.end.p0(i64 24, ptr %21) #3
  br label %151

151:                                              ; preds = %147, %143, %139
  call void @llvm.lifetime.end.p0(i64 8, ptr %12) #3
  call void @llvm.lifetime.end.p0(i64 8, ptr %11) #3
  br label %152

152:                                              ; preds = %151
  %153 = load ptr, ptr %16, align 8
  %154 = load i32, ptr %17, align 4
  %155 = insertvalue { ptr, i32 } poison, ptr %153, 0
  %156 = insertvalue { ptr, i32 } %155, i32 %154, 1
  resume { ptr, i32 } %156
}