; Function Attrs: mustprogress uwtable
define hidden void @_Z8drawAxisRN2cv3MatENS_6Point_IiEES3_NS_7Scalar_IdEEf(ptr noundef nonnull align 8 dereferenceable(96) %0, i64 %1, i64 %2, ptr noundef nonnull %3, float noundef %4) local_unnamed_addr #3 personality ptr @__gxx_personality_v0 {
  %6 = alloca %"class.cv::_InputOutputArray", align 8
  %7 = alloca %"class.cv::_InputOutputArray", align 8
  %8 = alloca %"class.cv::_InputOutputArray", align 8
  %.sroa.042.0.extract.trunc = trunc i64 %1 to i32
  %.sroa.1052.0.extract.shift = lshr i64 %1, 32
  %.sroa.1052.0.extract.trunc = trunc nuw i64 %.sroa.1052.0.extract.shift to i32
  %.sroa.019.0.extract.trunc = trunc i64 %2 to i32
  %.sroa.10.0.extract.shift = lshr i64 %2, 32
  %.sroa.10.0.extract.trunc = trunc nuw i64 %.sroa.10.0.extract.shift to i32
  %9 = sitofp i32 %.sroa.1052.0.extract.trunc to double
  %10 = sitofp i32 %.sroa.10.0.extract.trunc to double
  %11 = fsub double %9, %10
  %12 = sitofp i32 %.sroa.042.0.extract.trunc to double
  %13 = sitofp i32 %.sroa.019.0.extract.trunc to double
  %14 = fsub double %12, %13
  %15 = tail call double @atan2(double noundef %11, double noundef %14) #20, !tbaa !4
  %16 = sub nsw i32 %.sroa.1052.0.extract.trunc, %.sroa.10.0.extract.trunc
  %17 = sitofp i32 %16 to double
  %18 = sub nsw i32 %.sroa.042.0.extract.trunc, %.sroa.019.0.extract.trunc
  %19 = mul nsw i32 %18, %18
  %20 = uitofp nneg i32 %19 to double
  %21 = tail call double @llvm.fmuladd.f64(double %17, double %17, double %20)
  %sqrt = tail call double @llvm.sqrt.f64(double %21)
  %22 = fpext float %4 to double
  %23 = tail call double @cos(double noundef %15) #20, !tbaa !4
  %24 = fneg double %22
  %25 = fmul double %sqrt, %24
  %26 = tail call double @llvm.fmuladd.f64(double %25, double %23, double %12)
  %27 = fptosi double %26 to i32
  %28 = tail call double @sin(double noundef %15) #20, !tbaa !4
  %29 = tail call double @llvm.fmuladd.f64(double %25, double %28, double %9)
  %30 = fptosi double %29 to i32
  call void @llvm.lifetime.start.p0(i64 24, ptr nonnull %6) #20
  %31 = getelementptr inbounds nuw i8, ptr %6, i64 8
  %32 = getelementptr inbounds nuw i8, ptr %6, i64 16
  store i64 0, ptr %32, align 8
  store i32 50397184, ptr %6, align 8, !tbaa !8
  store ptr %0, ptr %31, align 8, !tbaa !12
  %.sroa.10.0.insert.ext34 = zext i32 %30 to i64
  %.sroa.10.0.insert.shift35 = shl nuw i64 %.sroa.10.0.insert.ext34, 32
  %.sroa.019.0.insert.ext27 = zext i32 %27 to i64
  %.sroa.019.0.insert.insert29 = or disjoint i64 %.sroa.10.0.insert.shift35, %.sroa.019.0.insert.ext27
  call void @_ZN2cv4lineERKNS_17_InputOutputArrayENS_6Point_IiEES4_RKNS_7Scalar_IdEEiii(ptr noundef nonnull align 8 dereferenceable(24) %6, i64 %1, i64 %.sroa.019.0.insert.insert29, ptr noundef nonnull align 8 dereferenceable(32) %3, i32 noundef 1, i32 noundef 16, i32 noundef 0)
  call void @llvm.lifetime.end.p0(i64 24, ptr nonnull %6) #20
  %33 = sitofp i32 %27 to double
  %34 = fadd double %15, 0x3FE921FB54442D18
  %35 = call double @cos(double noundef %34) #20, !tbaa !4
  %36 = call double @llvm.fmuladd.f64(double %35, double 9.000000e+00, double %33)
  %37 = fptosi double %36 to i32
  %38 = sitofp i32 %30 to double
  %39 = call double @sin(double noundef %34) #20, !tbaa !4
  %40 = call double @llvm.fmuladd.f64(double %39, double 9.000000e+00, double %38)
  %41 = fptosi double %40 to i32
  call void @llvm.lifetime.start.p0(i64 24, ptr nonnull %7) #20
  %42 = getelementptr inbounds nuw i8, ptr %7, i64 8
  %43 = getelementptr inbounds nuw i8, ptr %7, i64 16
  store i64 0, ptr %43, align 8
  store i32 50397184, ptr %7, align 8, !tbaa !8
  store ptr %0, ptr %42, align 8, !tbaa !12
  %.sroa.1052.0.insert.ext53 = zext i32 %41 to i64
  %.sroa.1052.0.insert.shift54 = shl nuw i64 %.sroa.1052.0.insert.ext53, 32
  %.sroa.042.0.insert.ext46 = zext i32 %37 to i64
  %.sroa.042.0.insert.insert48 = or disjoint i64 %.sroa.1052.0.insert.shift54, %.sroa.042.0.insert.ext46
  call void @_ZN2cv4lineERKNS_17_InputOutputArrayENS_6Point_IiEES4_RKNS_7Scalar_IdEEiii(ptr noundef nonnull align 8 dereferenceable(24) %7, i64 %.sroa.042.0.insert.insert48, i64 %.sroa.019.0.insert.insert29, ptr noundef nonnull align 8 dereferenceable(32) %3, i32 noundef 1, i32 noundef 16, i32 noundef 0)
  call void @llvm.lifetime.end.p0(i64 24, ptr nonnull %7) #20
  %44 = fadd double %15, 0xBFE921FB54442D18
  %45 = call double @cos(double noundef %44) #20, !tbaa !4
  %46 = call double @llvm.fmuladd.f64(double %45, double 9.000000e+00, double %33)
  %47 = fptosi double %46 to i32
  %48 = call double @sin(double noundef %44) #20, !tbaa !4
  %49 = call double @llvm.fmuladd.f64(double %48, double 9.000000e+00, double %38)
  %50 = fptosi double %49 to i32
  call void @llvm.lifetime.start.p0(i64 24, ptr nonnull %8) #20
  %51 = getelementptr inbounds nuw i8, ptr %8, i64 8
  %52 = getelementptr inbounds nuw i8, ptr %8, i64 16
  store i64 0, ptr %52, align 8
  store i32 50397184, ptr %8, align 8, !tbaa !8
  store ptr %0, ptr %51, align 8, !tbaa !12
  %.sroa.1052.0.insert.ext = zext i32 %50 to i64
  %.sroa.1052.0.insert.shift = shl nuw i64 %.sroa.1052.0.insert.ext, 32
  %.sroa.042.0.insert.ext = zext i32 %47 to i64
  %.sroa.042.0.insert.insert = or disjoint i64 %.sroa.1052.0.insert.shift, %.sroa.042.0.insert.ext
  call void @_ZN2cv4lineERKNS_17_InputOutputArrayENS_6Point_IiEES4_RKNS_7Scalar_IdEEiii(ptr noundef nonnull align 8 dereferenceable(24) %8, i64 %.sroa.042.0.insert.insert, i64 %.sroa.019.0.insert.insert29, ptr noundef nonnull align 8 dereferenceable(32) %3, i32 noundef 1, i32 noundef 16, i32 noundef 0)
  call void @llvm.lifetime.end.p0(i64 24, ptr nonnull %8) #20
  ret void
}